target datalayout = "e-m:e-p270:32:32-p271:32:32-p272:64:64-i64:64-i128:128-f80:128-n8:16:32:64-S128"
target triple = "x86_64-pc-linux-gnu"

%class.bit_vector = type { i32, i32, ptr }

; Function Attrs: mustprogress uwtable
define hidden void @_ZN10bit_vector9expand_toEj(ptr noundef nonnull align 8 dereferenceable(16) %0, i32 noundef %1) #4 align 2 {
  %3 = alloca ptr, align 8
  %4 = alloca i32, align 4
  store ptr %0, ptr %3, align 8, !tbaa !3
  store i32 %1, ptr %4, align 4, !tbaa !8
  %5 = load ptr, ptr %3, align 8
  %6 = getelementptr inbounds nuw %class.bit_vector, ptr %5, i32 0, i32 2
  %7 = load ptr, ptr %6, align 8, !tbaa !10
  %8 = icmp ne ptr %7, null
  br i1 %8, label %9, label %17

9:                                                ; preds = %2
  %10 = getelementptr inbounds nuw %class.bit_vector, ptr %5, i32 0, i32 2
  %11 = load ptr, ptr %10, align 8, !tbaa !10
  %12 = load i32, ptr %4, align 4, !tbaa !8
  %13 = zext i32 %12 to i64
  %14 = mul i64 %13, 4
  %15 = call noalias noundef ptr @_ZN6memory10reallocateEPvm(ptr noundef %11, i64 noundef %14)
  %16 = getelementptr inbounds nuw %class.bit_vector, ptr %5, i32 0, i32 2
  store ptr %15, ptr %16, align 8, !tbaa !10
  br label %23

17:                                               ; preds = %2
  %18 = load i32, ptr %4, align 4, !tbaa !8
  %19 = zext i32 %18 to i64
  %20 = mul i64 4, %19
  %21 = call noalias noundef ptr @_ZN6memory8allocateEm(i64 noundef %20)
  %22 = getelementptr inbounds nuw %class.bit_vector, ptr %5, i32 0, i32 2
  store ptr %21, ptr %22, align 8, !tbaa !10
  br label %23

23:                                               ; preds = %17, %9
  %24 = getelementptr inbounds nuw %class.bit_vector, ptr %5, i32 0, i32 2
  %25 = load ptr, ptr %24, align 8, !tbaa !10
  %26 = getelementptr inbounds nuw %class.bit_vector, ptr %5, i32 0, i32 1
  %27 = load i32, ptr %26, align 4, !tbaa !13
  %28 = zext i32 %27 to i64
  %29 = getelementptr inbounds nuw i32, ptr %25, i64 %28
  %30 = load i32, ptr %4, align 4, !tbaa !8
  %31 = getelementptr inbounds nuw %class.bit_vector, ptr %5, i32 0, i32 1
  %32 = load i32, ptr %31, align 4, !tbaa !13
  %33 = sub i32 %30, %32
  %34 = zext i32 %33 to i64
  %35 = mul i64 %34, 4
  call void @llvm.memset.p0.i64(ptr align 4 %29, i8 0, i64 %35, i1 false)
  %36 = load i32, ptr %4, align 4, !tbaa !8
  %37 = getelementptr inbounds nuw %class.bit_vector, ptr %5, i32 0, i32 1
  store i32 %36, ptr %37, align 4, !tbaa !13
  ret void
}

; Function Attrs: mustprogress uwtable
define hidden void @_ZN10bit_vector6resizeEjb(ptr noundef nonnull align 8 dereferenceable(16) %0, i32 noundef %1, i1 noundef zeroext %2) #4 align 2 {
  %4 = alloca ptr, align 8
  %5 = alloca i32, align 4
  %6 = alloca i8, align 1
  %7 = alloca i32, align 4
  %8 = alloca i32, align 4
  %9 = alloca ptr, align 8
  %10 = alloca i32, align 4
  %11 = alloca i32, align 4
  %12 = alloca i32, align 4
  store ptr %0, ptr %4, align 8, !tbaa !3
  store i32 %1, ptr %5, align 4, !tbaa !8
  %13 = zext i1 %2 to i8
  store i8 %13, ptr %6, align 1, !tbaa !14
  %14 = load ptr, ptr %4, align 8
  %15 = load i32, ptr %5, align 4, !tbaa !8
  %16 = getelementptr inbounds nuw %class.bit_vector, ptr %14, i32 0, i32 0
  %17 = load i32, ptr %16, align 8, !tbaa !16
  %18 = icmp ule i32 %15, %17
  br i1 %18, label %19, label %22

19:                                               ; preds = %3
  %20 = load i32, ptr %5, align 4, !tbaa !8
  %21 = getelementptr inbounds nuw %class.bit_vector, ptr %14, i32 0, i32 0
  store i32 %20, ptr %21, align 8, !tbaa !16
  br label %82

22:                                               ; preds = %3
  %23 = load i32, ptr %5, align 4, !tbaa !8
  %24 = call noundef i32 @_ZN10bit_vector9num_wordsEj(i32 noundef %23)
  %25 = getelementptr inbounds nuw %class.bit_vector, ptr %14, i32 0, i32 1
  %26 = load i32, ptr %25, align 4, !tbaa !13
  %27 = icmp ugt i32 %24, %26
  br i1 %27, label %28, label %34

28:                                               ; preds = %22
  %29 = load i32, ptr %5, align 4, !tbaa !8
  %30 = call noundef i32 @_ZN10bit_vector9num_wordsEj(i32 noundef %29)
  %31 = mul i32 %30, 3
  %32 = add i32 %31, 1
  %33 = lshr i32 %32, 1
  call void @_ZN10bit_vector9expand_toEj(ptr noundef nonnull align 8 dereferenceable(16) %14, i32 noundef %33)
  br label %34

34:                                               ; preds = %28, %22
  call void @llvm.lifetime.start.p0(i64 4, ptr %7) #3
  %35 = getelementptr inbounds nuw %class.bit_vector, ptr %14, i32 0, i32 0
  %36 = load i32, ptr %35, align 8, !tbaa !16
  %37 = udiv i32 %36, 32
  store i32 %37, ptr %7, align 4, !tbaa !8
  call void @llvm.lifetime.start.p0(i64 4, ptr %8) #3
  %38 = load i32, ptr %5, align 4, !tbaa !8
  %39 = call noundef i32 @_ZN10bit_vector9num_wordsEj(i32 noundef %38)
  store i32 %39, ptr %8, align 4, !tbaa !8
  call void @llvm.lifetime.start.p0(i64 8, ptr %9) #3
  %40 = getelementptr inbounds nuw %class.bit_vector, ptr %14, i32 0, i32 2
  %41 = load ptr, ptr %40, align 8, !tbaa !10
  %42 = load i32, ptr %7, align 4, !tbaa !8
  %43 = zext i32 %42 to i64
  %44 = getelementptr inbounds nuw i32, ptr %41, i64 %43
  store ptr %44, ptr %9, align 8, !tbaa !17
  call void @llvm.lifetime.start.p0(i64 4, ptr %10) #3
  %45 = getelementptr inbounds nuw %class.bit_vector, ptr %14, i32 0, i32 0
  %46 = load i32, ptr %45, align 8, !tbaa !16
  %47 = urem i32 %46, 32
  store i32 %47, ptr %10, align 4, !tbaa !8
  call void @llvm.lifetime.start.p0(i64 4, ptr %11) #3
  %48 = load i32, ptr %10, align 4, !tbaa !8
  %49 = shl i32 1, %48
  %50 = sub i32 %49, 1
  store i32 %50, ptr %11, align 4, !tbaa !8
  call void @llvm.lifetime.start.p0(i64 4, ptr %12) #3
  %51 = load i8, ptr %6, align 1, !tbaa !14, !range !18, !noundef !19
  %52 = trunc i8 %51 to i1
  br i1 %52, label %53, label %59

53:                                               ; preds = %34
  %54 = load i32, ptr %11, align 4, !tbaa !8
  %55 = xor i32 %54, -1
  %56 = load ptr, ptr %9, align 8, !tbaa !17
  %57 = load i32, ptr %56, align 4, !tbaa !8
  %58 = or i32 %57, %55
  store i32 %58, ptr %56, align 4, !tbaa !8
  store i32 -1, ptr %12, align 4, !tbaa !8
  br label %64

59:                                               ; preds = %34
  %60 = load i32, ptr %11, align 4, !tbaa !8
  %61 = load ptr, ptr %9, align 8, !tbaa !17
  %62 = load i32, ptr %61, align 4, !tbaa !8
  %63 = and i32 %62, %60
  store i32 %63, ptr %61, align 4, !tbaa !8
  store i32 0, ptr %12, align 4, !tbaa !8
  br label %64

64:                                               ; preds = %59, %53
  %65 = load i32, ptr %7, align 4, !tbaa !8
  %66 = load i32, ptr %8, align 4, !tbaa !8
  %67 = icmp ult i32 %65, %66
  br i1 %67, label %68, label %79

68:                                               ; preds = %64
  %69 = load ptr, ptr %9, align 8, !tbaa !17
  %70 = getelementptr inbounds i32, ptr %69, i64 1
  %71 = load i32, ptr %12, align 4, !tbaa !8
  %72 = trunc i32 %71 to i8
  %73 = load i32, ptr %8, align 4, !tbaa !8
  %74 = load i32, ptr %7, align 4, !tbaa !8
  %75 = sub i32 %73, %74
  %76 = sub i32 %75, 1
  %77 = zext i32 %76 to i64
  %78 = mul i64 %77, 4
  call void @llvm.memset.p0.i64(ptr align 4 %70, i8 %72, i64 %78, i1 false)
  br label %79

79:                                               ; preds = %68, %64
  %80 = load i32, ptr %5, align 4, !tbaa !8
  %81 = getelementptr inbounds nuw %class.bit_vector, ptr %14, i32 0, i32 0
  store i32 %80, ptr %81, align 8, !tbaa !16
  call void @llvm.lifetime.end.p0(i64 4, ptr %12) #3
  call void @llvm.lifetime.end.p0(i64 4, ptr %11) #3
  call void @llvm.lifetime.end.p0(i64 4, ptr %10) #3
  call void @llvm.lifetime.end.p0(i64 8, ptr %9) #3
  call void @llvm.lifetime.end.p0(i64 4, ptr %8) #3
  call void @llvm.lifetime.end.p0(i64 4, ptr %7) #3
  br label %82

82:                                               ; preds = %79, %19
  ret void
}

; Function Attrs: mustprogress nounwind uwtable
define linkonce_odr hidden noundef i32 @_ZN10bit_vector9num_wordsEj(i32 noundef %0) #6 comdat align 2 {
  %2 = alloca i32, align 4
  store i32 %0, ptr %2, align 4, !tbaa !8
  %3 = load i32, ptr %2, align 4, !tbaa !8
  %4 = add i32 %3, 31
  %5 = udiv i32 %4, 32
  ret i32 %5
}

; Function Attrs: mustprogress uwtable
define hidden void @_ZN10bit_vector11shift_rightEj(ptr noundef nonnull align 8 dereferenceable(16) %0, i32 noundef %1) #4 align 2 {
  %3 = alloca ptr, align 8
  %4 = alloca i32, align 4
  %5 = alloca i32, align 4
  %6 = alloca i32, align 4
  %7 = alloca i32, align 4
  %8 = alloca i32, align 4
  %9 = alloca i32, align 4
  %10 = alloca i32, align 4
  %11 = alloca i32, align 4
  %12 = alloca i32, align 4
  %13 = alloca i32, align 4
  %14 = alloca i32, align 4
  %15 = alloca i32, align 4
  store ptr %0, ptr %3, align 8, !tbaa !3
  store i32 %1, ptr %4, align 4, !tbaa !8
  %16 = load ptr, ptr %3, align 8
  %17 = load i32, ptr %4, align 4, !tbaa !8
  %18 = icmp eq i32 %17, 0
  br i1 %18, label %19, label %20

19:                                               ; preds = %2
  br label %126

20:                                               ; preds = %2
  call void @llvm.lifetime.start.p0(i64 4, ptr %5) #3
  %21 = getelementptr inbounds nuw %class.bit_vector, ptr %16, i32 0, i32 0
  %22 = load i32, ptr %21, align 8, !tbaa !16
  %23 = load i32, ptr %4, align 4, !tbaa !8
  %24 = add i32 %22, %23
  store i32 %24, ptr %5, align 4, !tbaa !8
  call void @llvm.lifetime.start.p0(i64 4, ptr %6) #3
  %25 = getelementptr inbounds nuw %class.bit_vector, ptr %16, i32 0, i32 0
  %26 = load i32, ptr %25, align 8, !tbaa !16
  %27 = call noundef i32 @_ZN10bit_vector9num_wordsEj(i32 noundef %26)
  store i32 %27, ptr %6, align 4, !tbaa !8
  call void @llvm.lifetime.start.p0(i64 4, ptr %7) #3
  %28 = load i32, ptr %5, align 4, !tbaa !8
  %29 = call noundef i32 @_ZN10bit_vector9num_wordsEj(i32 noundef %28)
  store i32 %29, ptr %7, align 4, !tbaa !8
  %30 = getelementptr inbounds nuw %class.bit_vector, ptr %16, i32 0, i32 0
  %31 = load i32, ptr %30, align 8, !tbaa !16
  %32 = load i32, ptr %4, align 4, !tbaa !8
  %33 = add i32 %31, %32
  call void @_ZN10bit_vector6resizeEjb(ptr noundef nonnull align 8 dereferenceable(16) %16, i32 noundef %33, i1 noundef zeroext false)
  call void @llvm.lifetime.start.p0(i64 4, ptr %8) #3
  %34 = load i32, ptr %4, align 4, !tbaa !8
  %35 = zext i32 %34 to i64
  %36 = urem i64 %35, 32
  %37 = trunc i64 %36 to i32
  store i32 %37, ptr %8, align 4, !tbaa !8
  call void @llvm.lifetime.start.p0(i64 4, ptr %9) #3
  %38 = load i32, ptr %4, align 4, !tbaa !8
  %39 = zext i32 %38 to i64
  %40 = udiv i64 %39, 32
  %41 = trunc i64 %40 to i32
  store i32 %41, ptr %9, align 4, !tbaa !8
  %42 = load i32, ptr %9, align 4, !tbaa !8
  %43 = icmp ugt i32 %42, 0
  br i1 %43, label %44, label %81

44:                                               ; preds = %20
  call void @llvm.lifetime.start.p0(i64 4, ptr %10) #3
  %45 = load i32, ptr %6, align 4, !tbaa !8
  store i32 %45, ptr %10, align 4, !tbaa !8
  call void @llvm.lifetime.start.p0(i64 4, ptr %11) #3
  %46 = load i32, ptr %6, align 4, !tbaa !8
  %47 = load i32, ptr %9, align 4, !tbaa !8
  %48 = add i32 %46, %47
  store i32 %48, ptr %11, align 4, !tbaa !8
  br label %49

49:                                               ; preds = %52, %44
  %50 = load i32, ptr %10, align 4, !tbaa !8
  %51 = icmp ugt i32 %50, 0
  br i1 %51, label %52, label %68

52:                                               ; preds = %49
  %53 = load i32, ptr %10, align 4, !tbaa !8
  %54 = add i32 %53, -1
  store i32 %54, ptr %10, align 4, !tbaa !8
  %55 = load i32, ptr %11, align 4, !tbaa !8
  %56 = add i32 %55, -1
  store i32 %56, ptr %11, align 4, !tbaa !8
  %57 = getelementptr inbounds nuw %class.bit_vector, ptr %16, i32 0, i32 2
  %58 = load ptr, ptr %57, align 8, !tbaa !10
  %59 = load i32, ptr %10, align 4, !tbaa !8
  %60 = zext i32 %59 to i64
  %61 = getelementptr inbounds nuw i32, ptr %58, i64 %60
  %62 = load i32, ptr %61, align 4, !tbaa !8
  %63 = getelementptr inbounds nuw %class.bit_vector, ptr %16, i32 0, i32 2
  %64 = load ptr, ptr %63, align 8, !tbaa !10
  %65 = load i32, ptr %11, align 4, !tbaa !8
  %66 = zext i32 %65 to i64
  %67 = getelementptr inbounds nuw i32, ptr %64, i64 %66
  store i32 %62, ptr %67, align 4, !tbaa !8
  br label %49, !llvm.loop !20

68:                                               ; preds = %49
  br label %69

69:                                               ; preds = %72, %68
  %70 = load i32, ptr %11, align 4, !tbaa !8
  %71 = icmp ugt i32 %70, 0
  br i1 %71, label %72, label %80

72:                                               ; preds = %69
  %73 = load i32, ptr %11, align 4, !tbaa !8
  %74 = add i32 %73, -1
  store i32 %74, ptr %11, align 4, !tbaa !8
  %75 = getelementptr inbounds nuw %class.bit_vector, ptr %16, i32 0, i32 2
  %76 = load ptr, ptr %75, align 8, !tbaa !10
  %77 = load i32, ptr %11, align 4, !tbaa !8
  %78 = zext i32 %77 to i64
  %79 = getelementptr inbounds nuw i32, ptr %76, i64 %78
  store i32 0, ptr %79, align 4, !tbaa !8
  br label %69, !llvm.loop !22

80:                                               ; preds = %69
  call void @llvm.lifetime.end.p0(i64 4, ptr %11) #3
  call void @llvm.lifetime.end.p0(i64 4, ptr %10) #3
  br label %81

81:                                               ; preds = %80, %20
  %82 = load i32, ptr %8, align 4, !tbaa !8
  %83 = icmp ugt i32 %82, 0
  br i1 %83, label %84, label %125

84:                                               ; preds = %81
  call void @llvm.lifetime.start.p0(i64 4, ptr %12) #3
  %85 = load i32, ptr %8, align 4, !tbaa !8
  %86 = zext i32 %85 to i64
  %87 = sub i64 32, %86
  %88 = trunc i64 %87 to i32
  store i32 %88, ptr %12, align 4, !tbaa !8
  call void @llvm.lifetime.start.p0(i64 4, ptr %13) #3
  store i32 0, ptr %13, align 4, !tbaa !8
  call void @llvm.lifetime.start.p0(i64 4, ptr %14) #3
  %89 = load i32, ptr %9, align 4, !tbaa !8
  store i32 %89, ptr %14, align 4, !tbaa !8
  br label %90

90:                                               ; preds = %121, %84
  %91 = load i32, ptr %14, align 4, !tbaa !8
  %92 = load i32, ptr %7, align 4, !tbaa !8
  %93 = icmp ult i32 %91, %92
  br i1 %93, label %95, label %94

94:                                               ; preds = %90
  call void @llvm.lifetime.end.p0(i64 4, ptr %14) #3
  br label %124

95:                                               ; preds = %90
  call void @llvm.lifetime.start.p0(i64 4, ptr %15) #3
  %96 = getelementptr inbounds nuw %class.bit_vector, ptr %16, i32 0, i32 2
  %97 = load ptr, ptr %96, align 8, !tbaa !10
  %98 = load i32, ptr %14, align 4, !tbaa !8
  %99 = zext i32 %98 to i64
  %100 = getelementptr inbounds nuw i32, ptr %97, i64 %99
  %101 = load i32, ptr %100, align 4, !tbaa !8
  %102 = load i32, ptr %12, align 4, !tbaa !8
  %103 = lshr i32 %101, %102
  store i32 %103, ptr %15, align 4, !tbaa !8
  %104 = load i32, ptr %8, align 4, !tbaa !8
  %105 = getelementptr inbounds nuw %class.bit_vector, ptr %16, i32 0, i32 2
  %106 = load ptr, ptr %105, align 8, !tbaa !10
  %107 = load i32, ptr %14, align 4, !tbaa !8
  %108 = zext i32 %107 to i64
  %109 = getelementptr inbounds nuw i32, ptr %106, i64 %108
  %110 = load i32, ptr %109, align 4, !tbaa !8
  %111 = shl i32 %110, %104
  store i32 %111, ptr %109, align 4, !tbaa !8
  %112 = load i32, ptr %13, align 4, !tbaa !8
  %113 = getelementptr inbounds nuw %class.bit_vector, ptr %16, i32 0, i32 2
  %114 = load ptr, ptr %113, align 8, !tbaa !10
  %115 = load i32, ptr %14, align 4, !tbaa !8
  %116 = zext i32 %115 to i64
  %117 = getelementptr inbounds nuw i32, ptr %114, i64 %116
  %118 = load i32, ptr %117, align 4, !tbaa !8
  %119 = or i32 %118, %112
  store i32 %119, ptr %117, align 4, !tbaa !8
  %120 = load i32, ptr %15, align 4, !tbaa !8
  store i32 %120, ptr %13, align 4, !tbaa !8
  call void @llvm.lifetime.end.p0(i64 4, ptr %15) #3
  br label %121

121:                                              ; preds = %95
  %122 = load i32, ptr %14, align 4, !tbaa !8
  %123 = add i32 %122, 1
  store i32 %123, ptr %14, align 4, !tbaa !8
  br label %90, !llvm.loop !23

124:                                              ; preds = %94
  call void @llvm.lifetime.end.p0(i64 4, ptr %13) #3
  call void @llvm.lifetime.end.p0(i64 4, ptr %12) #3
  br label %125

125:                                              ; preds = %124, %81
  call void @llvm.lifetime.end.p0(i64 4, ptr %9) #3
  call void @llvm.lifetime.end.p0(i64 4, ptr %8) #3
  call void @llvm.lifetime.end.p0(i64 4, ptr %7) #3
  call void @llvm.lifetime.end.p0(i64 4, ptr %6) #3
  call void @llvm.lifetime.end.p0(i64 4, ptr %5) #3
  br label %126

126:                                              ; preds = %125, %19
  ret void
}