; Function Attrs: mustprogress uwtable
define hidden void @_ZN10bit_vector11shift_rightEj(ptr noundef nonnull align 8 captures(none) dereferenceable(16) %0, i32 noundef %1) local_unnamed_addr #3 align 2 {
  %3 = icmp eq i32 %1, 0
  br i1 %3, label %.loopexit, label %4

4:                                                ; preds = %2
  %5 = load i32, ptr %0, align 8, !tbaa !11
  %6 = add i32 %5, %1
  %7 = add i32 %5, 31
  %8 = lshr i32 %7, 5
  %9 = add i32 %6, 31
  %10 = lshr i32 %9, 5
  %.not.i = icmp ugt i32 %6, %5
  br i1 %.not.i, label %11, label %_ZN10bit_vector6resizeEjb.exit

11:                                               ; preds = %4
  %12 = getelementptr inbounds nuw i8, ptr %0, i64 4
  %13 = load i32, ptr %12, align 4, !tbaa !10
  %14 = icmp ugt i32 %10, %13
  br i1 %14, label %15, label %._crit_edge.i

._crit_edge.i:                                    ; preds = %11
  %.phi.trans.insert.i = getelementptr inbounds nuw i8, ptr %0, i64 8
  %.pre22.i = load ptr, ptr %.phi.trans.insert.i, align 8, !tbaa !3
  br label %33

15:                                               ; preds = %11
  %16 = mul nuw nsw i32 %10, 3
  %17 = add nuw nsw i32 %16, 1
  %18 = lshr i32 %17, 1
  %19 = getelementptr inbounds nuw i8, ptr %0, i64 8
  %20 = load ptr, ptr %19, align 8, !tbaa !3
  %.not.i.i = icmp eq ptr %20, null
  %21 = shl nuw nsw i32 %18, 2
  %22 = zext nneg i32 %21 to i64
  br i1 %.not.i.i, label %25, label %23

23:                                               ; preds = %15
  %24 = tail call noalias noundef ptr @_ZN6memory10reallocateEPvm(ptr noundef nonnull %20, i64 noundef %22)
  br label %_ZN10bit_vector9expand_toEj.exit.i

25:                                               ; preds = %15
  %26 = tail call noalias noundef ptr @_ZN6memory8allocateEm(i64 noundef %22)
  br label %_ZN10bit_vector9expand_toEj.exit.i

_ZN10bit_vector9expand_toEj.exit.i:               ; preds = %25, %23
  %storemerge.i.i = phi ptr [ %26, %25 ], [ %24, %23 ]
  store ptr %storemerge.i.i, ptr %19, align 8, !tbaa !3
  %27 = load i32, ptr %12, align 4, !tbaa !10
  %28 = zext i32 %27 to i64
  %29 = getelementptr inbounds nuw i32, ptr %storemerge.i.i, i64 %28
  %30 = sub i32 %18, %27
  %31 = zext i32 %30 to i64
  %32 = shl nuw nsw i64 %31, 2
  tail call void @llvm.memset.p0.i64(ptr align 4 %29, i8 0, i64 %32, i1 false)
  store i32 %18, ptr %12, align 4, !tbaa !10
  %.pre.i = load i32, ptr %0, align 8, !tbaa !11
  br label %33

33:                                               ; preds = %_ZN10bit_vector9expand_toEj.exit.i, %._crit_edge.i
  %34 = phi ptr [ %storemerge.i.i, %_ZN10bit_vector9expand_toEj.exit.i ], [ %.pre22.i, %._crit_edge.i ]
  %35 = phi i32 [ %.pre.i, %_ZN10bit_vector9expand_toEj.exit.i ], [ %5, %._crit_edge.i ]
  %36 = lshr i32 %35, 5
  %37 = zext nneg i32 %36 to i64
  %38 = getelementptr inbounds nuw i32, ptr %34, i64 %37
  %39 = and i32 %35, 31
  %notmask.i = shl nsw i32 -1, %39
  %40 = xor i32 %notmask.i, -1
  %41 = load i32, ptr %38, align 4, !tbaa !12
  %42 = and i32 %41, %40
  store i32 %42, ptr %38, align 4, !tbaa !12
  %43 = icmp samesign ult i32 %36, %10
  br i1 %43, label %44, label %_ZN10bit_vector6resizeEjb.exit

44:                                               ; preds = %33
  %45 = getelementptr inbounds nuw i8, ptr %38, i64 4
  %46 = xor i32 %36, -1
  %47 = add nsw i32 %10, %46
  %48 = zext i32 %47 to i64
  %49 = shl nuw nsw i64 %48, 2
  tail call void @llvm.memset.p0.i64(ptr nonnull align 4 %45, i8 0, i64 %49, i1 false)
  br label %_ZN10bit_vector6resizeEjb.exit

_ZN10bit_vector6resizeEjb.exit:                   ; preds = %4, %33, %44
  store i32 %6, ptr %0, align 8, !tbaa !11
  %50 = and i32 %1, 31
  %51 = lshr i32 %1, 5
  %.not = icmp ult i32 %1, 32
  br i1 %.not, label %.loopexit40, label %52

52:                                               ; preds = %_ZN10bit_vector6resizeEjb.exit
  %53 = add nuw nsw i32 %8, %51
  %.not3741 = icmp ult i32 %7, 32
  br i1 %.not3741, label %.preheader, label %.lr.ph

.lr.ph:                                           ; preds = %52
  %54 = getelementptr inbounds nuw i8, ptr %0, i64 8
  %55 = load ptr, ptr %54, align 8, !tbaa !3
  br label %60

.preheader:                                       ; preds = %60, %52
  %.033.lcssa = phi i32 [ %53, %52 ], [ %62, %60 ]
  %.not3844 = icmp eq i32 %.033.lcssa, 0
  br i1 %.not3844, label %.loopexit40, label %.lr.ph46

.lr.ph46:                                         ; preds = %.preheader
  %56 = getelementptr inbounds nuw i8, ptr %0, i64 8
  %57 = load ptr, ptr %56, align 8, !tbaa !3
  %58 = zext i32 %.033.lcssa to i64
  %59 = shl nuw nsw i64 %58, 2
  tail call void @llvm.memset.p0.i64(ptr align 4 %57, i8 0, i64 %59, i1 false), !tbaa !12
  br label %.loopexit40

60:                                               ; preds = %.lr.ph, %60
  %.043 = phi i32 [ %8, %.lr.ph ], [ %61, %60 ]
  %.03342 = phi i32 [ %53, %.lr.ph ], [ %62, %60 ]
  %61 = add nsw i32 %.043, -1
  %62 = add nsw i32 %.03342, -1
  %63 = zext i32 %61 to i64
  %64 = getelementptr inbounds nuw i32, ptr %55, i64 %63
  %65 = load i32, ptr %64, align 4, !tbaa !12
  %66 = zext i32 %62 to i64
  %67 = getelementptr inbounds nuw i32, ptr %55, i64 %66
  store i32 %65, ptr %67, align 4, !tbaa !12
  %.not37 = icmp eq i32 %61, 0
  br i1 %.not37, label %.preheader, label %60, !llvm.loop !13

.loopexit40:                                      ; preds = %.lr.ph46, %.preheader, %_ZN10bit_vector6resizeEjb.exit
  %.not39 = icmp eq i32 %50, 0
  br i1 %.not39, label %.loopexit, label %68

68:                                               ; preds = %.loopexit40
  %narrow = sub nuw nsw i32 32, %50
  %69 = icmp samesign ult i32 %51, %10
  br i1 %69, label %.lr.ph49, label %.loopexit

.lr.ph49:                                         ; preds = %68
  %70 = getelementptr inbounds nuw i8, ptr %0, i64 8
  %71 = load ptr, ptr %70, align 8, !tbaa !3
  %72 = lshr i32 %1, 5
  %73 = zext nneg i32 %72 to i64
  %74 = add nuw nsw i32 %10, %72
  %75 = sub nsw i32 %74, %51
  %wide.trip.count = zext i32 %75 to i64
  br label %76

76:                                               ; preds = %.lr.ph49, %76
  %indvars.iv = phi i64 [ %73, %.lr.ph49 ], [ %indvars.iv.next, %76 ]
  %.03247 = phi i32 [ 0, %.lr.ph49 ], [ %79, %76 ]
  %77 = getelementptr inbounds nuw i32, ptr %71, i64 %indvars.iv
  %78 = load i32, ptr %77, align 4, !tbaa !12
  %79 = lshr i32 %78, %narrow
  %80 = shl i32 %78, %50
  %81 = or i32 %80, %.03247
  store i32 %81, ptr %77, align 4, !tbaa !12
  %indvars.iv.next = add nuw nsw i64 %indvars.iv, 1
  %exitcond.not = icmp eq i64 %indvars.iv.next, %wide.trip.count
  br i1 %exitcond.not, label %.loopexit, label %76, !llvm.loop !15

.loopexit:                                        ; preds = %76, %68, %.loopexit40, %2
  ret void
}